     1 00000000                                 [FORMAT "WCOFF"]
     2 00000000                                 [INSTRSET "i486p"]
     3 00000000                                 [OPTIMIZE 1]
     4 00000000                                 [OPTION 1]
     5 00000000                                 [BITS 32]
     6 00000000                                 	EXTERN	_fifo32_init
     7 00000000                                 	EXTERN	_init_keyboard
     8 00000000                                 	EXTERN	_enable_mouse
     9 00000000                                 	EXTERN	_io_out8
    10 00000000                                 	EXTERN	_timer_alloc
    11 00000000                                 	EXTERN	_timer_init
    12 00000000                                 	EXTERN	_timer_settime
    13 00000000                                 	EXTERN	_init_palette
    14 00000000                                 	EXTERN	_shtctl_init
    15 00000000                                 	EXTERN	_sheet_alloc
    16 00000000                                 	EXTERN	_memman_alloc_4k
    17 00000000                                 	EXTERN	_sheet_setbuf
    18 00000000                                 	EXTERN	_boxfill8
    19 00000000                                 	EXTERN	_init_mouse_cursol
    20 00000000                                 	EXTERN	_sheet_slide
    21 00000000                                 	EXTERN	_sheet_updown
    22 00000000                                 	EXTERN	_memman_total
    23 00000000                                 	EXTERN	_sprintf
    24 00000000                                 	EXTERN	_putstr8_asc
    25 00000000                                 	EXTERN	_sheet_refresh
    26 00000000                                 	EXTERN	_io_cli
    27 00000000                                 	EXTERN	_fifo32_status
    28 00000000                                 	EXTERN	_fifo32_get
    29 00000000                                 	EXTERN	_io_sti
    30 00000000                                 	EXTERN	_mouse_decode
    31 00000000                                 	EXTERN	_io_stihlt
    32 00000000                                 	EXTERN	_memtest
    33 00000000                                 	EXTERN	_memman_init
    34 00000000                                 	EXTERN	_memman_free
    35 00000000                                 	EXTERN	_init_gdtidt
    36 00000000                                 	EXTERN	_init_pic
    37 00000000                                 	EXTERN	_init_pit
    38 00000000                                 [FILE "bootpack.c"]
    39                                          [SECTION .data]
    40 00000000                                 LC0:
    41 00000000 54 69 6D 65 72 00               	DB	"Timer",0x00
    42 00000006                                 LC1:
    43 00000006 6D 65 6D 6F 72 79 20 25 64 4D   	DB	"memory %dMB  free : %dKB",0x00
       00000010 42 20 20 66 72 65 65 20 3A 20 
       0000001A 25 64 4B 42 00 
    44 0000001F                                 LC4:
    45 0000001F 33 5B 73 65 63 5D 00            	DB	"3[sec]",0x00
    46 00000026                                 LC3:
    47 00000026 31 30 5B 73 65 63 5D 00         	DB	"10[sec]",0x00
    48 0000002E                                 LC2:
    49 0000002E 25 30 32 58 00                  	DB	"%02X",0x00
    50                                          [SECTION .text]
    51 00000000                                 	GLOBAL	_HariMain
    52 00000000                                 _HariMain:
    53 00000000 55                              	PUSH	EBP
    54 00000001 89 E5                           	MOV	EBP,ESP
    55 00000003 57                              	PUSH	EDI
    56 00000004 56                              	PUSH	ESI
    57 00000005 53                              	PUSH	EBX
    58 00000006 8D 75 84                        	LEA	ESI,DWORD [-124+EBP]
    59 00000009 81 EC 00000590                  	SUB	ESP,1424
    60 0000000F E8 00000486                     	CALL	_hardWareInit
    61 00000014 8D 85 FFFFFB84                  	LEA	EAX,DWORD [-1148+EBP]
    62 0000001A 50                              	PUSH	EAX
    63 0000001B 68 00000100                     	PUSH	256
    64 00000020 56                              	PUSH	ESI
    65 00000021 E8 [00000000]                   	CALL	_fifo32_init
    66 00000026 68 00000100                     	PUSH	256
    67 0000002B 56                              	PUSH	ESI
    68 0000002C E8 [00000000]                   	CALL	_init_keyboard
    69 00000031 8D 45 A4                        	LEA	EAX,DWORD [-92+EBP]
    70 00000034 50                              	PUSH	EAX
    71 00000035 68 00000200                     	PUSH	512
    72 0000003A 56                              	PUSH	ESI
    73 0000003B E8 [00000000]                   	CALL	_enable_mouse
    74 00000040 83 C4 20                        	ADD	ESP,32
    75 00000043 68 000000F8                     	PUSH	248
    76 00000048 6A 21                           	PUSH	33
    77 0000004A E8 [00000000]                   	CALL	_io_out8
    78 0000004F 68 000000EF                     	PUSH	239
    79 00000054 68 000000A1                     	PUSH	161
    80 00000059 E8 [00000000]                   	CALL	_io_out8
    81 0000005E 68 003C0000                     	PUSH	3932160
    82 00000063 E8 000003E3                     	CALL	_memoryUsage
    83 00000068 89 04 24                        	MOV	DWORD [ESP],EAX
    84 0000006B 68 003C0000                     	PUSH	3932160
    85 00000070 E8 000003EA                     	CALL	_memoryInit
    86 00000075 E8 [00000000]                   	CALL	_timer_alloc
    87 0000007A 6A 0A                           	PUSH	10
    88 0000007C 56                              	PUSH	ESI
    89 0000007D 89 C3                           	MOV	EBX,EAX
    90 0000007F 50                              	PUSH	EAX
    91 00000080 E8 [00000000]                   	CALL	_timer_init
    92 00000085 83 C4 24                        	ADD	ESP,36
    93 00000088 68 000003E8                     	PUSH	1000
    94 0000008D 53                              	PUSH	EBX
    95 0000008E E8 [00000000]                   	CALL	_timer_settime
    96 00000093 E8 [00000000]                   	CALL	_timer_alloc
    97 00000098 6A 03                           	PUSH	3
    98 0000009A 56                              	PUSH	ESI
    99 0000009B 89 C3                           	MOV	EBX,EAX
   100 0000009D 50                              	PUSH	EAX
   101 0000009E E8 [00000000]                   	CALL	_timer_init
   102 000000A3 68 0000012C                     	PUSH	300
   103 000000A8 53                              	PUSH	EBX
   104 000000A9 E8 [00000000]                   	CALL	_timer_settime
   105 000000AE E8 [00000000]                   	CALL	_timer_alloc
   106 000000B3 6A 01                           	PUSH	1
   107 000000B5 56                              	PUSH	ESI
   108 000000B6 50                              	PUSH	EAX
   109 000000B7 89 85 FFFFFA6C                  	MOV	DWORD [-1428+EBP],EAX
   110 000000BD E8 [00000000]                   	CALL	_timer_init
   111 000000C2 83 C4 28                        	ADD	ESP,40
   112 000000C5 6A 32                           	PUSH	50
   113 000000C7 FF B5 FFFFFA6C                  	PUSH	DWORD [-1428+EBP]
   114 000000CD E8 [00000000]                   	CALL	_timer_settime
   115 000000D2 E8 [00000000]                   	CALL	_init_palette
   116 000000D7 0F BF 05 00000FF6               	MOVSX	EAX,WORD [4086]
   117 000000DE 50                              	PUSH	EAX
   118 000000DF 0F BF 05 00000FF4               	MOVSX	EAX,WORD [4084]
   119 000000E6 50                              	PUSH	EAX
   120 000000E7 FF 35 00000FF8                  	PUSH	DWORD [4088]
   121 000000ED 68 003C0000                     	PUSH	3932160
   122 000000F2 E8 [00000000]                   	CALL	_shtctl_init
   123 000000F7 89 C3                           	MOV	EBX,EAX
   124 000000F9 50                              	PUSH	EAX
   125 000000FA E8 [00000000]                   	CALL	_sheet_alloc
   126 000000FF 53                              	PUSH	EBX
   127 00000100 89 85 FFFFFA78                  	MOV	DWORD [-1416+EBP],EAX
   128 00000106 E8 [00000000]                   	CALL	_sheet_alloc
   129 0000010B 83 C4 20                        	ADD	ESP,32
   130 0000010E 89 85 FFFFFA74                  	MOV	DWORD [-1420+EBP],EAX
   131 00000114 53                              	PUSH	EBX
   132 00000115 8D 9D FFFFFA84                  	LEA	EBX,DWORD [-1404+EBP]
   133 0000011B E8 [00000000]                   	CALL	_sheet_alloc
   134 00000120 89 C6                           	MOV	ESI,EAX
   135 00000122 0F BF 15 00000FF6               	MOVSX	EDX,WORD [4086]
   136 00000129 0F BF 05 00000FF4               	MOVSX	EAX,WORD [4084]
   137 00000130 0F AF C2                        	IMUL	EAX,EDX
   138 00000133 50                              	PUSH	EAX
   139 00000134 68 003C0000                     	PUSH	3932160
   140 00000139 E8 [00000000]                   	CALL	_memman_alloc_4k
   141 0000013E 68 00002A80                     	PUSH	10880
   142 00000143 68 003C0000                     	PUSH	3932160
   143 00000148 89 85 FFFFFA70                  	MOV	DWORD [-1424+EBP],EAX
   144 0000014E E8 [00000000]                   	CALL	_memman_alloc_4k
   145 00000153 6A FF                           	PUSH	-1
   146 00000155 89 C7                           	MOV	EDI,EAX
   147 00000157 0F BF 05 00000FF6               	MOVSX	EAX,WORD [4086]
   148 0000015E 50                              	PUSH	EAX
   149 0000015F 0F BF 05 00000FF4               	MOVSX	EAX,WORD [4084]
   150 00000166 50                              	PUSH	EAX
   151 00000167 FF B5 FFFFFA70                  	PUSH	DWORD [-1424+EBP]
   152 0000016D FF B5 FFFFFA78                  	PUSH	DWORD [-1416+EBP]
   153 00000173 E8 [00000000]                   	CALL	_sheet_setbuf
   154 00000178 83 C4 28                        	ADD	ESP,40
   155 0000017B 6A 03                           	PUSH	3
   156 0000017D 6A 08                           	PUSH	8
   157 0000017F 6A 08                           	PUSH	8
   158 00000181 53                              	PUSH	EBX
   159 00000182 FF B5 FFFFFA74                  	PUSH	DWORD [-1420+EBP]
   160 00000188 E8 [00000000]                   	CALL	_sheet_setbuf
   161 0000018D 6A 58                           	PUSH	88
   162 0000018F 6A 44                           	PUSH	68
   163 00000191 68 000000A0                     	PUSH	160
   164 00000196 57                              	PUSH	EDI
   165 00000197 56                              	PUSH	ESI
   166 00000198 E8 [00000000]                   	CALL	_sheet_setbuf
   167 0000019D 83 C4 28                        	ADD	ESP,40
   168 000001A0 0F BF 05 00000FF6               	MOVSX	EAX,WORD [4086]
   169 000001A7 50                              	PUSH	EAX
   170 000001A8 0F BF 05 00000FF4               	MOVSX	EAX,WORD [4084]
   171 000001AF 50                              	PUSH	EAX
   172 000001B0 6A 00                           	PUSH	0
   173 000001B2 6A 00                           	PUSH	0
   174 000001B4 6A 03                           	PUSH	3
   175 000001B6 0F BF 05 00000FF4               	MOVSX	EAX,WORD [4084]
   176 000001BD 50                              	PUSH	EAX
   177 000001BE FF B5 FFFFFA70                  	PUSH	DWORD [-1424+EBP]
   178 000001C4 E8 [00000000]                   	CALL	_boxfill8
   179 000001C9 6A 03                           	PUSH	3
   180 000001CB 53                              	PUSH	EBX
   181 000001CC BB 00000002                     	MOV	EBX,2
   182 000001D1 E8 [00000000]                   	CALL	_init_mouse_cursol
   183 000001D6 83 C4 24                        	ADD	ESP,36
   184 000001D9 68 [00000000]                   	PUSH	LC0
   185 000001DE 6A 44                           	PUSH	68
   186 000001E0 68 000000A0                     	PUSH	160
   187 000001E5 57                              	PUSH	EDI
   188 000001E6 8D BD FFFFFA7C                  	LEA	EDI,DWORD [-1412+EBP]
   189 000001EC E8 000002FB                     	CALL	_makeWindow8
   190 000001F1 6A 00                           	PUSH	0
   191 000001F3 6A 00                           	PUSH	0
   192 000001F5 FF B5 FFFFFA78                  	PUSH	DWORD [-1416+EBP]
   193 000001FB E8 [00000000]                   	CALL	_sheet_slide
   194 00000200 0F BF 05 00000FF4               	MOVSX	EAX,WORD [4084]
   195 00000207 8D 48 F8                        	LEA	ECX,DWORD [-8+EAX]
   196 0000020A 89 C8                           	MOV	EAX,ECX
   197 0000020C 99                              	CDQ
   198 0000020D F7 FB                           	IDIV	EBX
   199 0000020F 89 C1                           	MOV	ECX,EAX
   200 00000211 89 85 FFFFFA7C                  	MOV	DWORD [-1412+EBP],EAX
   201 00000217 0F BF 05 00000FF6               	MOVSX	EAX,WORD [4086]
   202 0000021E 83 E8 24                        	SUB	EAX,36
   203 00000221 99                              	CDQ
   204 00000222 F7 FB                           	IDIV	EBX
   205 00000224 50                              	PUSH	EAX
   206 00000225 89 85 FFFFFA80                  	MOV	DWORD [-1408+EBP],EAX
   207 0000022B 51                              	PUSH	ECX
   208 0000022C 8D 5D B4                        	LEA	EBX,DWORD [-76+EBP]
   209 0000022F FF B5 FFFFFA74                  	PUSH	DWORD [-1420+EBP]
   210 00000235 E8 [00000000]                   	CALL	_sheet_slide
   211 0000023A 83 C4 28                        	ADD	ESP,40
   212 0000023D 6A 48                           	PUSH	72
   213 0000023F 6A 50                           	PUSH	80
   214 00000241 56                              	PUSH	ESI
   215 00000242 E8 [00000000]                   	CALL	_sheet_slide
   216 00000247 6A 00                           	PUSH	0
   217 00000249 FF B5 FFFFFA78                  	PUSH	DWORD [-1416+EBP]
   218 0000024F E8 [00000000]                   	CALL	_sheet_updown
   219 00000254 6A 01                           	PUSH	1
   220 00000256 56                              	PUSH	ESI
   221 00000257 E8 [00000000]                   	CALL	_sheet_updown
   222 0000025C 6A 02                           	PUSH	2
   223 0000025E FF B5 FFFFFA74                  	PUSH	DWORD [-1420+EBP]
   224 00000264 E8 [00000000]                   	CALL	_sheet_updown
   225 00000269 83 C4 24                        	ADD	ESP,36
   226 0000026C 68 003C0000                     	PUSH	3932160
   227 00000271 E8 [00000000]                   	CALL	_memman_total
   228 00000276 C1 E8 0A                        	SHR	EAX,10
   229 00000279 89 04 24                        	MOV	DWORD [ESP],EAX
   230 0000027C A1 003C0000                     	MOV	EAX,DWORD [3932160]
   231 00000281 C1 E8 14                        	SHR	EAX,20
   232 00000284 50                              	PUSH	EAX
   233 00000285 68 [00000006]                   	PUSH	LC1
   234 0000028A 53                              	PUSH	EBX
   235 0000028B E8 [00000000]                   	CALL	_sprintf
   236 00000290 53                              	PUSH	EBX
   237 00000291 6A 07                           	PUSH	7
   238 00000293 6A 30                           	PUSH	48
   239 00000295 6A 00                           	PUSH	0
   240 00000297 0F BF 05 00000FF4               	MOVSX	EAX,WORD [4084]
   241 0000029E 50                              	PUSH	EAX
   242 0000029F FF B5 FFFFFA70                  	PUSH	DWORD [-1424+EBP]
   243 000002A5 E8 [00000000]                   	CALL	_putstr8_asc
   244 000002AA 83 C4 28                        	ADD	ESP,40
   245 000002AD 6A 40                           	PUSH	64
   246 000002AF 0F BF 05 00000FF4               	MOVSX	EAX,WORD [4084]
   247 000002B6 50                              	PUSH	EAX
   248 000002B7 6A 00                           	PUSH	0
   249 000002B9 6A 00                           	PUSH	0
   250 000002BB FF B5 FFFFFA78                  	PUSH	DWORD [-1416+EBP]
   251 000002C1 E8 [00000000]                   	CALL	_sheet_refresh
   252 000002C6 83 C4 14                        	ADD	ESP,20
   253 000002C9                                 L18:
   254 000002C9 8D 75 84                        	LEA	ESI,DWORD [-124+EBP]
   255 000002CC E8 [00000000]                   	CALL	_io_cli
   256 000002D1 56                              	PUSH	ESI
   257 000002D2 E8 [00000000]                   	CALL	_fifo32_status
   258 000002D7 59                              	POP	ECX
   259 000002D8 85 C0                           	TEST	EAX,EAX
   260 000002DA 0F 84 00000161                  	JE	L22
   261 000002E0 56                              	PUSH	ESI
   262 000002E1 E8 [00000000]                   	CALL	_fifo32_get
   263 000002E6 89 C3                           	MOV	EBX,EAX
   264 000002E8 E8 [00000000]                   	CALL	_io_sti
   265 000002ED 5A                              	POP	EDX
   266 000002EE 8D 83 FFFFFF00                  	LEA	EAX,DWORD [-256+EBX]
   267 000002F4 3D 000000FF                     	CMP	EAX,255
   268 000002F9 0F 86 00000115                  	JBE	L23
   269 000002FF 8D 83 FFFFFE00                  	LEA	EAX,DWORD [-512+EBX]
   270 00000305 3D 000000FF                     	CMP	EAX,255
   271 0000030A 0F 86 000000AD                  	JBE	L24
   272 00000310 83 FB 0A                        	CMP	EBX,10
   273 00000313 0F 84 00000095                  	JE	L25
   274 00000319 83 FB 03                        	CMP	EBX,3
   275 0000031C 74 74                           	JE	L26
   276 0000031E 85 DB                           	TEST	EBX,EBX
   277 00000320 74 56                           	JE	L16
   278 00000322 6A 00                           	PUSH	0
   279 00000324 56                              	PUSH	ESI
   280 00000325 FF B5 FFFFFA6C                  	PUSH	DWORD [-1428+EBP]
   281 0000032B E8 [00000000]                   	CALL	_timer_init
   282 00000330 6A 6F                           	PUSH	111
   283 00000332 6A 0F                           	PUSH	15
   284 00000334 6A 60                           	PUSH	96
   285 00000336 6A 08                           	PUSH	8
   286 00000338 6A 07                           	PUSH	7
   287 0000033A                                 L20:
   288 0000033A 0F BF 05 00000FF4               	MOVSX	EAX,WORD [4084]
   289 00000341 50                              	PUSH	EAX
   290 00000342 FF B5 FFFFFA70                  	PUSH	DWORD [-1424+EBP]
   291 00000348 E8 [00000000]                   	CALL	_boxfill8
   292 0000034D 83 C4 28                        	ADD	ESP,40
   293 00000350 6A 32                           	PUSH	50
   294 00000352 FF B5 FFFFFA6C                  	PUSH	DWORD [-1428+EBP]
   295 00000358 E8 [00000000]                   	CALL	_timer_settime
   296 0000035D 6A 70                           	PUSH	112
   297 0000035F 6A 10                           	PUSH	16
   298 00000361 6A 60                           	PUSH	96
   299 00000363 6A 08                           	PUSH	8
   300 00000365 FF B5 FFFFFA78                  	PUSH	DWORD [-1416+EBP]
   301 0000036B E8 [00000000]                   	CALL	_sheet_refresh
   302 00000370                                 L19:
   303 00000370 83 C4 1C                        	ADD	ESP,28
   304 00000373 E9 FFFFFF51                     	JMP	L18
   305 00000378                                 L16:
   306 00000378 6A 01                           	PUSH	1
   307 0000037A 56                              	PUSH	ESI
   308 0000037B FF B5 FFFFFA6C                  	PUSH	DWORD [-1428+EBP]
   309 00000381 E8 [00000000]                   	CALL	_timer_init
   310 00000386 6A 6F                           	PUSH	111
   311 00000388 6A 0F                           	PUSH	15
   312 0000038A 6A 60                           	PUSH	96
   313 0000038C 6A 08                           	PUSH	8
   314 0000038E 6A 03                           	PUSH	3
   315 00000390 EB A8                           	JMP	L20
   316 00000392                                 L26:
   317 00000392 6A 06                           	PUSH	6
   318 00000394 68 [0000001F]                   	PUSH	LC4
   319 00000399 6A 03                           	PUSH	3
   320 0000039B 6A 07                           	PUSH	7
   321 0000039D 6A 50                           	PUSH	80
   322 0000039F                                 L21:
   323 0000039F 6A 00                           	PUSH	0
   324 000003A1 FF B5 FFFFFA78                  	PUSH	DWORD [-1416+EBP]
   325 000003A7 E8 0000029D                     	CALL	_putfont8_sht
   326 000003AC EB C2                           	JMP	L19
   327 000003AE                                 L25:
   328 000003AE 6A 07                           	PUSH	7
   329 000003B0 68 [00000026]                   	PUSH	LC3
   330 000003B5 6A 03                           	PUSH	3
   331 000003B7 6A 07                           	PUSH	7
   332 000003B9 6A 40                           	PUSH	64
   333 000003BB EB E2                           	JMP	L21
   334 000003BD                                 L24:
   335 000003BD 0F B6 C3                        	MOVZX	EAX,BL
   336 000003C0 50                              	PUSH	EAX
   337 000003C1 8D 45 A4                        	LEA	EAX,DWORD [-92+EBP]
   338 000003C4 50                              	PUSH	EAX
   339 000003C5 E8 [00000000]                   	CALL	_mouse_decode
   340 000003CA 5A                              	POP	EDX
   341 000003CB 59                              	POP	ECX
   342 000003CC 48                              	DEC	EAX
   343 000003CD 0F 85 FFFFFEF6                  	JNE	L18
   344 000003D3 8B 45 A8                        	MOV	EAX,DWORD [-88+EBP]
   345 000003D6 01 85 FFFFFA7C                  	ADD	DWORD [-1412+EBP],EAX
   346 000003DC 8B 45 AC                        	MOV	EAX,DWORD [-84+EBP]
   347 000003DF 01 47 04                        	ADD	DWORD [4+EDI],EAX
   348 000003E2 0F BF 05 00000FF6               	MOVSX	EAX,WORD [4086]
   349 000003E9 50                              	PUSH	EAX
   350 000003EA 0F BF 05 00000FF4               	MOVSX	EAX,WORD [4084]
   351 000003F1 50                              	PUSH	EAX
   352 000003F2 57                              	PUSH	EDI
   353 000003F3 E8 000000BA                     	CALL	_MouseCoodinateThreshold
   354 000003F8 FF 77 04                        	PUSH	DWORD [4+EDI]
   355 000003FB FF B5 FFFFFA7C                  	PUSH	DWORD [-1412+EBP]
   356 00000401 FF B5 FFFFFA74                  	PUSH	DWORD [-1420+EBP]
   357 00000407 E8 [00000000]                   	CALL	_sheet_slide
   358 0000040C 83 C4 18                        	ADD	ESP,24
   359 0000040F E9 FFFFFEB5                     	JMP	L18
   360 00000414                                 L23:
   361 00000414 50                              	PUSH	EAX
   362 00000415 8D 5D B4                        	LEA	EBX,DWORD [-76+EBP]
   363 00000418 68 [0000002E]                   	PUSH	LC2
   364 0000041D 53                              	PUSH	EBX
   365 0000041E E8 [00000000]                   	CALL	_sprintf
   366 00000423 6A 03                           	PUSH	3
   367 00000425 53                              	PUSH	EBX
   368 00000426 6A 03                           	PUSH	3
   369 00000428 6A 07                           	PUSH	7
   370 0000042A 6A 10                           	PUSH	16
   371 0000042C 6A 00                           	PUSH	0
   372 0000042E FF B5 FFFFFA78                  	PUSH	DWORD [-1416+EBP]
   373 00000434 E8 00000210                     	CALL	_putfont8_sht
   374 00000439 83 C4 28                        	ADD	ESP,40
   375 0000043C E9 FFFFFE88                     	JMP	L18
   376 00000441                                 L22:
   377 00000441 E8 [00000000]                   	CALL	_io_stihlt
   378 00000446 E9 FFFFFE7E                     	JMP	L18
   379 0000044B                                 	GLOBAL	_memoryUsage
   380 0000044B                                 _memoryUsage:
   381 0000044B 55                              	PUSH	EBP
   382 0000044C 89 E5                           	MOV	EBP,ESP
   383 0000044E 68 BFFFFFFF                     	PUSH	-1073741825
   384 00000453 68 00400000                     	PUSH	4194304
   385 00000458 E8 [00000000]                   	CALL	_memtest
   386 0000045D C9                              	LEAVE
   387 0000045E C3                              	RET
   388 0000045F                                 	GLOBAL	_memoryInit
   389 0000045F                                 _memoryInit:
   390 0000045F 55                              	PUSH	EBP
   391 00000460 89 E5                           	MOV	EBP,ESP
   392 00000462 56                              	PUSH	ESI
   393 00000463 53                              	PUSH	EBX
   394 00000464 8B 5D 0C                        	MOV	EBX,DWORD [12+EBP]
   395 00000467 8B 75 08                        	MOV	ESI,DWORD [8+EBP]
   396 0000046A 53                              	PUSH	EBX
   397 0000046B 81 EB 00400000                  	SUB	EBX,4194304
   398 00000471 56                              	PUSH	ESI
   399 00000472 E8 [00000000]                   	CALL	_memman_init
   400 00000477 68 0009E000                     	PUSH	647168
   401 0000047C 68 00001000                     	PUSH	4096
   402 00000481 56                              	PUSH	ESI
   403 00000482 E8 [00000000]                   	CALL	_memman_free
   404 00000487 53                              	PUSH	EBX
   405 00000488 68 00400000                     	PUSH	4194304
   406 0000048D 56                              	PUSH	ESI
   407 0000048E E8 [00000000]                   	CALL	_memman_free
   408 00000493 8D 65 F8                        	LEA	ESP,DWORD [-8+EBP]
   409 00000496 5B                              	POP	EBX
   410 00000497 5E                              	POP	ESI
   411 00000498 5D                              	POP	EBP
   412 00000499 C3                              	RET
   413 0000049A                                 	GLOBAL	_hardWareInit
   414 0000049A                                 _hardWareInit:
   415 0000049A 55                              	PUSH	EBP
   416 0000049B 89 E5                           	MOV	EBP,ESP
   417 0000049D E8 [00000000]                   	CALL	_init_gdtidt
   418 000004A2 E8 [00000000]                   	CALL	_init_pic
   419 000004A7 E8 [00000000]                   	CALL	_io_sti
   420 000004AC 5D                              	POP	EBP
   421 000004AD E9 [00000000]                   	JMP	_init_pit
   422 000004B2                                 	GLOBAL	_MouseCoodinateThreshold
   423 000004B2                                 _MouseCoodinateThreshold:
   424 000004B2 55                              	PUSH	EBP
   425 000004B3 89 E5                           	MOV	EBP,ESP
   426 000004B5 8B 45 08                        	MOV	EAX,DWORD [8+EBP]
   427 000004B8 83 38 00                        	CMP	DWORD [EAX],0
   428 000004BB 78 27                           	JS	L35
   429 000004BD                                 L31:
   430 000004BD 83 78 04 00                     	CMP	DWORD [4+EAX],0
   431 000004C1 78 18                           	JS	L36
   432 000004C3                                 L32:
   433 000004C3 8B 55 0C                        	MOV	EDX,DWORD [12+EBP]
   434 000004C6 4A                              	DEC	EDX
   435 000004C7 39 10                           	CMP	DWORD [EAX],EDX
   436 000004C9 76 02                           	JBE	L33
   437 000004CB 89 10                           	MOV	DWORD [EAX],EDX
   438 000004CD                                 L33:
   439 000004CD 8B 55 10                        	MOV	EDX,DWORD [16+EBP]
   440 000004D0 4A                              	DEC	EDX
   441 000004D1 39 50 04                        	CMP	DWORD [4+EAX],EDX
   442 000004D4 76 03                           	JBE	L30
   443 000004D6 89 50 04                        	MOV	DWORD [4+EAX],EDX
   444 000004D9                                 L30:
   445 000004D9 5D                              	POP	EBP
   446 000004DA C3                              	RET
   447 000004DB                                 L36:
   448 000004DB C7 40 04 00000000               	MOV	DWORD [4+EAX],0
   449 000004E2 EB DF                           	JMP	L32
   450 000004E4                                 L35:
   451 000004E4 C7 00 00000000                  	MOV	DWORD [EAX],0
   452 000004EA EB D1                           	JMP	L31
   453                                          [SECTION .data]
   454 00000033                                 _closebtn.0:
   455 00000033 4F 4F 4F 4F 4F 4F 4F 4F 4F 4F   	DB	"OOOOOOOOOOOOOOO@"
       0000003D 4F 4F 4F 4F 4F 40 
   456 00000043 4F 51 51 51 51 51 51 51 51 51   	DB	"OQQQQQQQQQQQQQ$@"
       0000004D 51 51 51 51 24 40 
   457 00000053 4F 51 51 51 51 51 51 51 51 51   	DB	"OQQQQQQQQQQQQQ$@"
       0000005D 51 51 51 51 24 40 
   458 00000063 4F 51 51 51 40 40 51 51 51 51   	DB	"OQQQ@@QQQQ@@QQ$@"
       0000006D 40 40 51 51 24 40 
   459 00000073 4F 51 51 51 51 40 40 51 51 40   	DB	"OQQQQ@@QQ@@QQQ$@"
       0000007D 40 51 51 51 24 40 
   460 00000083 4F 51 51 51 51 51 40 40 40 40   	DB	"OQQQQQ@@@@QQQQ$@"
       0000008D 51 51 51 51 24 40 
   461 00000093 4F 51 51 51 51 51 51 40 40 51   	DB	"OQQQQQQ@@QQQQQ$@"
       0000009D 51 51 51 51 24 40 
   462 000000A3 4F 51 51 51 51 51 40 40 40 40   	DB	"OQQQQQ@@@@QQQQ$@"
       000000AD 51 51 51 51 24 40 
   463 000000B3 4F 51 51 51 51 40 40 51 51 40   	DB	"OQQQQ@@QQ@@QQQ$@"
       000000BD 40 51 51 51 24 40 
   464 000000C3 4F 51 51 51 40 40 51 51 51 51   	DB	"OQQQ@@QQQQ@@QQ$@"
       000000CD 40 40 51 51 24 40 
   465 000000D3 4F 51 51 51 51 51 51 51 51 51   	DB	"OQQQQQQQQQQQQQ$@"
       000000DD 51 51 51 51 24 40 
   466 000000E3 4F 51 51 51 51 51 51 51 51 51   	DB	"OQQQQQQQQQQQQQ$@"
       000000ED 51 51 51 51 24 40 
   467 000000F3 4F 24 24 24 24 24 24 24 24 24   	DB	"O$$$$$$$$$$$$$$@"
       000000FD 24 24 24 24 24 40 
   468 00000103 40 40 40 40 40 40 40 40 40 40   	DB	"@@@@@@@@@@@@@@@@"
       0000010D 40 40 40 40 40 40 
   469                                          [SECTION .text]
   470 000004EC                                 	GLOBAL	_makeWindow8
   471 000004EC                                 _makeWindow8:
   472 000004EC 55                              	PUSH	EBP
   473 000004ED 89 E5                           	MOV	EBP,ESP
   474 000004EF 57                              	PUSH	EDI
   475 000004F0 56                              	PUSH	ESI
   476 000004F1 53                              	PUSH	EBX
   477 000004F2 83 EC 10                        	SUB	ESP,16
   478 000004F5 8B 5D 0C                        	MOV	EBX,DWORD [12+EBP]
   479 000004F8 6A 00                           	PUSH	0
   480 000004FA 8D 43 FF                        	LEA	EAX,DWORD [-1+EBX]
   481 000004FD 8D 7B FE                        	LEA	EDI,DWORD [-2+EBX]
   482 00000500 50                              	PUSH	EAX
   483 00000501 89 45 EC                        	MOV	DWORD [-20+EBP],EAX
   484 00000504 6A 00                           	PUSH	0
   485 00000506 6A 00                           	PUSH	0
   486 00000508 6A 08                           	PUSH	8
   487 0000050A 53                              	PUSH	EBX
   488 0000050B FF 75 08                        	PUSH	DWORD [8+EBP]
   489 0000050E E8 [00000000]                   	CALL	_boxfill8
   490 00000513 6A 01                           	PUSH	1
   491 00000515 57                              	PUSH	EDI
   492 00000516 6A 01                           	PUSH	1
   493 00000518 6A 01                           	PUSH	1
   494 0000051A 6A 07                           	PUSH	7
   495 0000051C 53                              	PUSH	EBX
   496 0000051D FF 75 08                        	PUSH	DWORD [8+EBP]
   497 00000520 E8 [00000000]                   	CALL	_boxfill8
   498 00000525 8B 45 10                        	MOV	EAX,DWORD [16+EBP]
   499 00000528 83 C4 38                        	ADD	ESP,56
   500 0000052B 48                              	DEC	EAX
   501 0000052C 89 45 E8                        	MOV	DWORD [-24+EBP],EAX
   502 0000052F 50                              	PUSH	EAX
   503 00000530 6A 00                           	PUSH	0
   504 00000532 6A 00                           	PUSH	0
   505 00000534 6A 00                           	PUSH	0
   506 00000536 6A 08                           	PUSH	8
   507 00000538 53                              	PUSH	EBX
   508 00000539 FF 75 08                        	PUSH	DWORD [8+EBP]
   509 0000053C E8 [00000000]                   	CALL	_boxfill8
   510 00000541 8B 75 10                        	MOV	ESI,DWORD [16+EBP]
   511 00000544 83 EE 02                        	SUB	ESI,2
   512 00000547 56                              	PUSH	ESI
   513 00000548 6A 01                           	PUSH	1
   514 0000054A 6A 01                           	PUSH	1
   515 0000054C 6A 01                           	PUSH	1
   516 0000054E 6A 07                           	PUSH	7
   517 00000550 53                              	PUSH	EBX
   518 00000551 FF 75 08                        	PUSH	DWORD [8+EBP]
   519 00000554 E8 [00000000]                   	CALL	_boxfill8
   520 00000559 83 C4 38                        	ADD	ESP,56
   521 0000055C 56                              	PUSH	ESI
   522 0000055D 57                              	PUSH	EDI
   523 0000055E 6A 01                           	PUSH	1
   524 00000560 57                              	PUSH	EDI
   525 00000561 6A 0F                           	PUSH	15
   526 00000563 53                              	PUSH	EBX
   527 00000564 FF 75 08                        	PUSH	DWORD [8+EBP]
   528 00000567 E8 [00000000]                   	CALL	_boxfill8
   529 0000056C FF 75 E8                        	PUSH	DWORD [-24+EBP]
   530 0000056F FF 75 EC                        	PUSH	DWORD [-20+EBP]
   531 00000572 6A 00                           	PUSH	0
   532 00000574 FF 75 EC                        	PUSH	DWORD [-20+EBP]
   533 00000577 6A 01                           	PUSH	1
   534 00000579 53                              	PUSH	EBX
   535 0000057A FF 75 08                        	PUSH	DWORD [8+EBP]
   536 0000057D E8 [00000000]                   	CALL	_boxfill8
   537 00000582 8B 45 10                        	MOV	EAX,DWORD [16+EBP]
   538 00000585 83 C4 38                        	ADD	ESP,56
   539 00000588 83 E8 03                        	SUB	EAX,3
   540 0000058B 50                              	PUSH	EAX
   541 0000058C 8D 43 FD                        	LEA	EAX,DWORD [-3+EBX]
   542 0000058F 50                              	PUSH	EAX
   543 00000590 6A 02                           	PUSH	2
   544 00000592 6A 02                           	PUSH	2
   545 00000594 6A 08                           	PUSH	8
   546 00000596 53                              	PUSH	EBX
   547 00000597 FF 75 08                        	PUSH	DWORD [8+EBP]
   548 0000059A E8 [00000000]                   	CALL	_boxfill8
   549 0000059F 8D 43 FC                        	LEA	EAX,DWORD [-4+EBX]
   550 000005A2 6A 14                           	PUSH	20
   551 000005A4 50                              	PUSH	EAX
   552 000005A5 6A 03                           	PUSH	3
   553 000005A7 6A 03                           	PUSH	3
   554 000005A9 6A 07                           	PUSH	7
   555 000005AB 53                              	PUSH	EBX
   556 000005AC FF 75 08                        	PUSH	DWORD [8+EBP]
   557 000005AF E8 [00000000]                   	CALL	_boxfill8
   558 000005B4 83 C4 38                        	ADD	ESP,56
   559 000005B7 56                              	PUSH	ESI
   560 000005B8 57                              	PUSH	EDI
   561 000005B9 31 FF                           	XOR	EDI,EDI
   562 000005BB 56                              	PUSH	ESI
   563 000005BC 6A 01                           	PUSH	1
   564 000005BE 6A 0F                           	PUSH	15
   565 000005C0 53                              	PUSH	EBX
   566 000005C1 FF 75 08                        	PUSH	DWORD [8+EBP]
   567 000005C4 E8 [00000000]                   	CALL	_boxfill8
   568 000005C9 FF 75 E8                        	PUSH	DWORD [-24+EBP]
   569 000005CC FF 75 EC                        	PUSH	DWORD [-20+EBP]
   570 000005CF FF 75 E8                        	PUSH	DWORD [-24+EBP]
   571 000005D2 6A 00                           	PUSH	0
   572 000005D4 6A 07                           	PUSH	7
   573 000005D6 53                              	PUSH	EBX
   574 000005D7 FF 75 08                        	PUSH	DWORD [8+EBP]
   575 000005DA E8 [00000000]                   	CALL	_boxfill8
   576 000005DF 83 C4 38                        	ADD	ESP,56
   577 000005E2 FF 75 14                        	PUSH	DWORD [20+EBP]
   578 000005E5 6A 00                           	PUSH	0
   579 000005E7 6A 04                           	PUSH	4
   580 000005E9 6A 18                           	PUSH	24
   581 000005EB 53                              	PUSH	EBX
   582 000005EC FF 75 08                        	PUSH	DWORD [8+EBP]
   583 000005EF E8 [00000000]                   	CALL	_putstr8_asc
   584 000005F4 83 C4 18                        	ADD	ESP,24
   585 000005F7 6B CB 05                        	IMUL	ECX,EBX,5
   586 000005FA C7 45 F0 00000000               	MOV	DWORD [-16+EBP],0
   587 00000601                                 L53:
   588 00000601 8D 14 19                        	LEA	EDX,DWORD [ECX+EBX*1]
   589 00000604 8B 45 08                        	MOV	EAX,DWORD [8+EBP]
   590 00000607 31 F6                           	XOR	ESI,ESI
   591 00000609 8D 54 10 EB                     	LEA	EDX,DWORD [-21+EAX+EDX*1]
   592 0000060D                                 L52:
   593 0000060D 8A 84 3E [00000033]             	MOV	AL,BYTE [_closebtn.0+ESI+EDI*1]
   594 00000614 3C 40                           	CMP	AL,64
   595 00000616 74 08                           	JE	L50
   596 00000618 3C 24                           	CMP	AL,36
   597 0000061A 74 29                           	JE	L58
   598 0000061C 3C 51                           	CMP	AL,81
   599 0000061E 74 21                           	JE	L59
   600 00000620                                 L50:
   601 00000620 B0 07                           	MOV	AL,7
   602 00000622                                 L47:
   603 00000622 46                              	INC	ESI
   604 00000623 88 02                           	MOV	BYTE [EDX],AL
   605 00000625 42                              	INC	EDX
   606 00000626 83 FE 0F                        	CMP	ESI,15
   607 00000629 7E E2                           	JLE	L52
   608 0000062B FF 45 F0                        	INC	DWORD [-16+EBP]
   609 0000062E 01 D9                           	ADD	ECX,EBX
   610 00000630 83 C7 10                        	ADD	EDI,16
   611 00000633 83 7D F0 0D                     	CMP	DWORD [-16+EBP],13
   612 00000637 7E C8                           	JLE	L53
   613 00000639 8D 65 F4                        	LEA	ESP,DWORD [-12+EBP]
   614 0000063C 5B                              	POP	EBX
   615 0000063D 5E                              	POP	ESI
   616 0000063E 5F                              	POP	EDI
   617 0000063F 5D                              	POP	EBP
   618 00000640 C3                              	RET
   619 00000641                                 L59:
   620 00000641 B0 01                           	MOV	AL,1
   621 00000643 EB DD                           	JMP	L47
   622 00000645                                 L58:
   623 00000645 B0 0F                           	MOV	AL,15
   624 00000647 EB D9                           	JMP	L47
   625 00000649                                 	GLOBAL	_putfont8_sht
   626 00000649                                 _putfont8_sht:
   627 00000649 55                              	PUSH	EBP
   628 0000064A 89 E5                           	MOV	EBP,ESP
   629 0000064C 57                              	PUSH	EDI
   630 0000064D 56                              	PUSH	ESI
   631 0000064E 53                              	PUSH	EBX
   632 0000064F 83 EC 0C                        	SUB	ESP,12
   633 00000652 8B 5D 10                        	MOV	EBX,DWORD [16+EBP]
   634 00000655 8B 45 14                        	MOV	EAX,DWORD [20+EBP]
   635 00000658 8B 7D 0C                        	MOV	EDI,DWORD [12+EBP]
   636 0000065B 8B 55 20                        	MOV	EDX,DWORD [32+EBP]
   637 0000065E 89 45 F0                        	MOV	DWORD [-16+EBP],EAX
   638 00000661 8B 75 08                        	MOV	ESI,DWORD [8+EBP]
   639 00000664 8B 45 1C                        	MOV	EAX,DWORD [28+EBP]
   640 00000667 89 45 EC                        	MOV	DWORD [-20+EBP],EAX
   641 0000066A 8D 43 0F                        	LEA	EAX,DWORD [15+EBX]
   642 0000066D 50                              	PUSH	EAX
   643 0000066E 8D 04 D7                        	LEA	EAX,DWORD [EDI+EDX*8]
   644 00000671 89 45 E8                        	MOV	DWORD [-24+EBP],EAX
   645 00000674 29 D0                           	SUB	EAX,EDX
   646 00000676 50                              	PUSH	EAX
   647 00000677 53                              	PUSH	EBX
   648 00000678 57                              	PUSH	EDI
   649 00000679 0F B6 45 18                     	MOVZX	EAX,BYTE [24+EBP]
   650 0000067D 50                              	PUSH	EAX
   651 0000067E FF 76 04                        	PUSH	DWORD [4+ESI]
   652 00000681 FF 36                           	PUSH	DWORD [ESI]
   653 00000683 E8 [00000000]                   	CALL	_boxfill8
   654 00000688 FF 75 EC                        	PUSH	DWORD [-20+EBP]
   655 0000068B FF 75 F0                        	PUSH	DWORD [-16+EBP]
   656 0000068E 53                              	PUSH	EBX
   657 0000068F 57                              	PUSH	EDI
   658 00000690 FF 76 04                        	PUSH	DWORD [4+ESI]
   659 00000693 FF 36                           	PUSH	DWORD [ESI]
   660 00000695 E8 [00000000]                   	CALL	_putstr8_asc
   661 0000069A 89 75 08                        	MOV	DWORD [8+EBP],ESI
   662 0000069D 8D 43 10                        	LEA	EAX,DWORD [16+EBX]
   663 000006A0 89 5D 10                        	MOV	DWORD [16+EBP],EBX
   664 000006A3 89 45 18                        	MOV	DWORD [24+EBP],EAX
   665 000006A6 89 7D 0C                        	MOV	DWORD [12+EBP],EDI
   666 000006A9 8B 45 E8                        	MOV	EAX,DWORD [-24+EBP]
   667 000006AC 83 C4 34                        	ADD	ESP,52
   668 000006AF 89 45 14                        	MOV	DWORD [20+EBP],EAX
   669 000006B2 8D 65 F4                        	LEA	ESP,DWORD [-12+EBP]
   670 000006B5 5B                              	POP	EBX
   671 000006B6 5E                              	POP	ESI
   672 000006B7 5F                              	POP	EDI
   673 000006B8 5D                              	POP	EBP
   674 000006B9 E9 [00000000]                   	JMP	_sheet_refresh
